target datalayout = "e-m:e-p270:32:32-p271:32:32-p272:64:64-i64:64-i128:128-f80:128-n8:16:32:64-S128"
target triple = "x86_64-pc-linux-gnu"

%"class.lean::mpz" = type { [1 x %struct.__mpz_struct] }
%struct.__mpz_struct = type { i32, i32, ptr }

; Function Attrs: inlinehint mustprogress nounwind willreturn memory(read) uwtable
define available_externally i64 @__gmpz_getlimbn(ptr noundef %0, i64 noundef %1) #8 {
  %3 = alloca ptr, align 8
  %4 = alloca i64, align 8
  %5 = alloca i64, align 8
  store ptr %0, ptr %3, align 8, !tbaa !8
  store i64 %1, ptr %4, align 8, !tbaa !13
  call void @llvm.lifetime.start.p0(i64 8, ptr %5) #17
  store i64 0, ptr %5, align 8, !tbaa !13
  %6 = load i64, ptr %4, align 8, !tbaa !13
  %7 = icmp sge i64 %6, 0
  br i1 %7, label %8, label %27

8:                                                ; preds = %2
  %9 = load i64, ptr %4, align 8, !tbaa !13
  %10 = load ptr, ptr %3, align 8, !tbaa !8
  %11 = getelementptr inbounds nuw %struct.__mpz_struct, ptr %10, i32 0, i32 1
  %12 = load i32, ptr %11, align 4, !tbaa !15
  %13 = icmp sge i32 %12, 0
  br i1 %13, label %14, label %18

14:                                               ; preds = %8
  %15 = load ptr, ptr %3, align 8, !tbaa !8
  %16 = getelementptr inbounds nuw %struct.__mpz_struct, ptr %15, i32 0, i32 1
  %17 = load i32, ptr %16, align 4, !tbaa !15
  br label %23

18:                                               ; preds = %8
  %19 = load ptr, ptr %3, align 8, !tbaa !8
  %20 = getelementptr inbounds nuw %struct.__mpz_struct, ptr %19, i32 0, i32 1
  %21 = load i32, ptr %20, align 4, !tbaa !15
  %22 = sub nsw i32 0, %21
  br label %23

23:                                               ; preds = %18, %14
  %24 = phi i32 [ %17, %14 ], [ %22, %18 ]
  %25 = sext i32 %24 to i64
  %26 = icmp slt i64 %9, %25
  br label %27

27:                                               ; preds = %23, %2
  %28 = phi i1 [ false, %2 ], [ %26, %23 ]
  %29 = zext i1 %28 to i32
  %30 = icmp ne i32 %29, 0
  %31 = zext i1 %30 to i64
  %32 = call i64 @llvm.expect.i64(i64 %31, i64 1)
  %33 = icmp ne i64 %32, 0
  br i1 %33, label %34, label %41

34:                                               ; preds = %27
  %35 = load ptr, ptr %3, align 8, !tbaa !8
  %36 = getelementptr inbounds nuw %struct.__mpz_struct, ptr %35, i32 0, i32 2
  %37 = load ptr, ptr %36, align 8, !tbaa !18
  %38 = load i64, ptr %4, align 8, !tbaa !13
  %39 = getelementptr inbounds i64, ptr %37, i64 %38
  %40 = load i64, ptr %39, align 8, !tbaa !13
  store i64 %40, ptr %5, align 8, !tbaa !13
  br label %41

41:                                               ; preds = %34, %27
  %42 = load i64, ptr %5, align 8, !tbaa !13
  call void @llvm.lifetime.end.p0(i64 8, ptr %5) #17
  ret i64 %42
}

; Function Attrs: mustprogress nounwind uwtable
define noundef i64 @_ZNK4lean3mpz10get_size_tEv(ptr noundef nonnull align 8 dereferenceable(16) %0) #0 align 2 {
  %2 = alloca ptr, align 8
  store ptr %0, ptr %2, align 8, !tbaa !3
  %3 = load ptr, ptr %2, align 8
  %4 = getelementptr inbounds nuw %"class.lean::mpz", ptr %3, i32 0, i32 0
  %5 = getelementptr inbounds [1 x %struct.__mpz_struct], ptr %4, i64 0, i64 0
  %6 = call i64 @__gmpz_getlimbn(ptr noundef %5, i64 noundef 0) #19
  ret i64 %6
}