; Function Attrs: mustprogress nofree norecurse nosync nounwind willreturn memory(read, inaccessiblemem: none) uwtable
define noundef i64 @_ZNK4lean3mpz10get_size_tEv(ptr noundef nonnull readonly align 8 captures(none) dereferenceable(16) %0) local_unnamed_addr #10 align 2 {
  %2 = getelementptr inbounds nuw i8, ptr %0, i64 4
  %3 = load i32, ptr %2, align 4, !tbaa !3
  %.not = icmp eq i32 %3, 0
  br i1 %.not, label %__gmpz_getlimbn.exit, label %4, !prof !13

4:                                                ; preds = %1
  %5 = getelementptr inbounds nuw i8, ptr %0, i64 8
  %6 = load ptr, ptr %5, align 8, !tbaa !10
  %7 = load i64, ptr %6, align 8, !tbaa !11
  br label %__gmpz_getlimbn.exit

__gmpz_getlimbn.exit:                             ; preds = %1, %4
  %.0.i = phi i64 [ %7, %4 ], [ 0, %1 ]
  ret i64 %.0.i
}